target datalayout = "e-m:e-p270:32:32-p271:32:32-p272:64:64-i64:64-i128:128-f80:128-n8:16:32:64-S128"
target triple = "x86_64-pc-linux-gnu"

%struct.H5FL_reg_head_t = type { i8, i32, i32, ptr, i64, ptr }
%struct.H5F_t = type { ptr, ptr, ptr, ptr, i32, ptr, i8, i8, ptr, i32 }

@H5F_init_g = external global i8, align 1
@H5_libterm_g = external global i8, align 1
@H5_H5F_t_reg_free_list = external global %struct.H5FL_reg_head_t, align 8
@H5_H5F_shared_t_reg_free_list = external global %struct.H5FL_reg_head_t, align 8

; Function Attrs: nounwind uwtable
define i32 @H5F_fake_free(ptr noundef %0) #0 {
  %2 = alloca ptr, align 8
  store ptr %0, ptr %2, align 8, !tbaa !6
  %3 = load i8, ptr @H5F_init_g, align 1, !tbaa !9, !range !11, !noundef !12
  %4 = trunc i8 %3 to i1
  br i1 %4, label %9, label %5

5:                                                ; preds = %1
  %6 = load i8, ptr @H5_libterm_g, align 1, !tbaa !9, !range !11, !noundef !12
  %7 = trunc i8 %6 to i1
  %8 = xor i1 %7, true
  br label %9

9:                                                ; preds = %5, %1
  %10 = phi i1 [ true, %1 ], [ %8, %5 ]
  %11 = xor i1 %10, true
  %12 = xor i1 %11, true
  %13 = zext i1 %12 to i32
  %14 = sext i32 %13 to i64
  %15 = call i64 @llvm.expect.i64(i64 %14, i64 1)
  %16 = icmp ne i64 %15, 0
  br i1 %16, label %17, label %36

17:                                               ; preds = %9
  %18 = load ptr, ptr %2, align 8, !tbaa !6
  %19 = icmp ne ptr %18, null
  br i1 %19, label %20, label %35

20:                                               ; preds = %17
  %21 = load ptr, ptr %2, align 8, !tbaa !6
  %22 = getelementptr inbounds nuw %struct.H5F_t, ptr %21, i32 0, i32 2
  %23 = load ptr, ptr %22, align 8, !tbaa !15
  %24 = icmp ne ptr %23, null
  br i1 %24, label %25, label %32

25:                                               ; preds = %20
  %26 = load ptr, ptr %2, align 8, !tbaa !6
  %27 = getelementptr inbounds nuw %struct.H5F_t, ptr %26, i32 0, i32 2
  %28 = load ptr, ptr %27, align 8, !tbaa !15
  %29 = call ptr @H5FL_reg_free(ptr noundef @H5_H5F_shared_t_reg_free_list, ptr noundef %28)
  %30 = load ptr, ptr %2, align 8, !tbaa !6
  %31 = getelementptr inbounds nuw %struct.H5F_t, ptr %30, i32 0, i32 2
  store ptr %29, ptr %31, align 8, !tbaa !15
  br label %32

32:                                               ; preds = %25, %20
  %33 = load ptr, ptr %2, align 8, !tbaa !6
  %34 = call ptr @H5FL_reg_free(ptr noundef @H5_H5F_t_reg_free_list, ptr noundef %33)
  store ptr %34, ptr %2, align 8, !tbaa !6
  br label %35

35:                                               ; preds = %32, %17
  br label %36

36:                                               ; preds = %35, %9
  ret i32 0
}