; Function Attrs: nounwind uwtable
define noundef i32 @H5F_fake_free(ptr noundef %0) local_unnamed_addr #0 {
  %2 = load i8, ptr @H5F_init_g, align 1, !tbaa !3, !range !7, !noundef !8
  %3 = trunc nuw i8 %2 to i1
  %4 = load i8, ptr @H5_libterm_g, align 1, !range !7
  %5 = trunc nuw i8 %4 to i1
  %6 = xor i1 %5, true
  %7 = select i1 %3, i1 true, i1 %6
  %8 = icmp ne ptr %0, null
  %or.cond = and i1 %8, %7
  br i1 %or.cond, label %9, label %16, !prof !42

9:                                                ; preds = %1
  %10 = getelementptr inbounds nuw i8, ptr %0, i64 16
  %11 = load ptr, ptr %10, align 8, !tbaa !12
  %.not = icmp eq ptr %11, null
  br i1 %.not, label %14, label %12

12:                                               ; preds = %9
  %13 = tail call ptr @H5FL_reg_free(ptr noundef nonnull @H5_H5F_shared_t_reg_free_list, ptr noundef nonnull %11) #2
  store ptr %13, ptr %10, align 8, !tbaa !12
  br label %14

14:                                               ; preds = %12, %9
  %15 = tail call ptr @H5FL_reg_free(ptr noundef nonnull @H5_H5F_t_reg_free_list, ptr noundef nonnull %0) #2
  br label %16

16:                                               ; preds = %14, %1
  ret i32 0
}